target datalayout = "e-m:e-p270:32:32-p271:32:32-p272:64:64-i64:64-i128:128-f80:128-n8:16:32:64-S128"
target triple = "x86_64-pc-linux-gnu"

%struct.ForEachState = type { ptr, i32 }
%struct.PlannerInfo = type { i32, ptr, ptr, i32, ptr, ptr, ptr, ptr, i32, ptr, ptr, ptr, ptr, ptr, ptr, ptr, ptr, i32, ptr, ptr, ptr, ptr, ptr, i8, ptr, ptr, ptr, ptr, ptr, i32, ptr, ptr, ptr, ptr, ptr, ptr, ptr, i32, ptr, ptr, ptr, i32, ptr, ptr, ptr, ptr, ptr, ptr, [8 x ptr], [8 x ptr], ptr, ptr, ptr, ptr, ptr, ptr, ptr, double, double, double, i32, i8, i8, i8, i8, i8, i8, i8, i32, ptr, ptr, i32, i8, i8, i32, ptr, ptr, ptr, ptr, ptr, ptr, i8, ptr }
%struct.List = type { i32, i32, i32, ptr, [0 x %union.ListCell] }
%union.ListCell = type { ptr }
%struct.TargetEntry = type { %struct.Expr, ptr, i16, ptr, i32, i32, i16, i8 }
%struct.Expr = type { i32 }
%struct.Aggref = type { %struct.Expr, i32, i32, i32, i32, i32, ptr, ptr, ptr, ptr, ptr, ptr, i8, i8, i8, i8, i32, i32, i32, i32, i32 }
%struct.MinMaxAggInfo = type { i32, i32, i32, ptr, ptr, ptr, double, ptr }

; Function Attrs: inlinehint nounwind uwtable
define internal ptr @list_nth_cell(ptr noundef %0, i32 noundef %1) #2 {
  %3 = alloca ptr, align 8
  %4 = alloca i32, align 4
  store ptr %0, ptr %3, align 8
  store i32 %1, ptr %4, align 4
  %5 = load ptr, ptr %3, align 8
  %6 = getelementptr inbounds nuw %struct.List, ptr %5, i32 0, i32 3
  %7 = load ptr, ptr %6, align 8
  %8 = load i32, ptr %4, align 4
  %9 = sext i32 %8 to i64
  %10 = getelementptr inbounds %union.ListCell, ptr %7, i64 %9
  ret ptr %10
}

; Function Attrs: inlinehint nounwind uwtable
define internal i32 @list_length(ptr noundef %0) #2 {
  %2 = alloca ptr, align 8
  store ptr %0, ptr %2, align 8
  %3 = load ptr, ptr %2, align 8
  %4 = icmp ne ptr %3, null
  br i1 %4, label %5, label %9

5:                                                ; preds = %1
  %6 = load ptr, ptr %2, align 8
  %7 = getelementptr inbounds nuw %struct.List, ptr %6, i32 0, i32 1
  %8 = load i32, ptr %7, align 4
  br label %10

9:                                                ; preds = %1
  br label %10

10:                                               ; preds = %9, %5
  %11 = phi i32 [ %8, %5 ], [ 0, %9 ]
  ret i32 %11
}

; Function Attrs: nounwind uwtable
define dso_local ptr @find_minmax_agg_replacement_param(ptr noundef %0, ptr noundef %1) #0 {
  %3 = alloca ptr, align 8
  %4 = alloca ptr, align 8
  %5 = alloca ptr, align 8
  %6 = alloca ptr, align 8
  %7 = alloca ptr, align 8
  %8 = alloca %struct.ForEachState, align 8
  %9 = alloca i32, align 4
  %10 = alloca ptr, align 8
  store ptr %0, ptr %4, align 8
  store ptr %1, ptr %5, align 8
  %11 = load ptr, ptr %4, align 8
  %12 = getelementptr inbounds nuw %struct.PlannerInfo, ptr %11, i32 0, i32 55
  %13 = load ptr, ptr %12, align 8
  %14 = icmp ne ptr %13, null
  br i1 %14, label %15, label %95

15:                                               ; preds = %2
  %16 = load ptr, ptr %5, align 8
  %17 = getelementptr inbounds nuw %struct.Aggref, ptr %16, i32 0, i32 8
  %18 = load ptr, ptr %17, align 8
  %19 = call i32 @list_length(ptr noundef %18)
  %20 = icmp eq i32 %19, 1
  br i1 %20, label %21, label %95

21:                                               ; preds = %15
  call void @llvm.lifetime.start.p0(i64 8, ptr %6) #8
  %22 = load ptr, ptr %5, align 8
  %23 = getelementptr inbounds nuw %struct.Aggref, ptr %22, i32 0, i32 8
  %24 = load ptr, ptr %23, align 8
  %25 = call ptr @list_nth_cell(ptr noundef %24, i32 noundef 0)
  %26 = load ptr, ptr %25, align 8
  store ptr %26, ptr %6, align 8
  call void @llvm.lifetime.start.p0(i64 8, ptr %7) #8
  call void @llvm.lifetime.start.p0(i64 16, ptr %8) #8
  %27 = getelementptr inbounds nuw %struct.ForEachState, ptr %8, i32 0, i32 0
  %28 = load ptr, ptr %4, align 8
  %29 = getelementptr inbounds nuw %struct.PlannerInfo, ptr %28, i32 0, i32 55
  %30 = load ptr, ptr %29, align 8
  store ptr %30, ptr %27, align 8
  %31 = getelementptr inbounds nuw %struct.ForEachState, ptr %8, i32 0, i32 1
  store i32 0, ptr %31, align 8
  %32 = getelementptr i8, ptr %8, i64 12
  call void @llvm.memset.p0.i64(ptr align 4 %32, i8 0, i64 4, i1 false)
  br label %33

33:                                               ; preds = %85, %21
  %34 = getelementptr inbounds nuw %struct.ForEachState, ptr %8, i32 0, i32 0
  %35 = load ptr, ptr %34, align 8
  %36 = icmp ne ptr %35, null
  br i1 %36, label %37, label %54

37:                                               ; preds = %33
  %38 = getelementptr inbounds nuw %struct.ForEachState, ptr %8, i32 0, i32 1
  %39 = load i32, ptr %38, align 8
  %40 = getelementptr inbounds nuw %struct.ForEachState, ptr %8, i32 0, i32 0
  %41 = load ptr, ptr %40, align 8
  %42 = getelementptr inbounds nuw %struct.List, ptr %41, i32 0, i32 1
  %43 = load i32, ptr %42, align 4
  %44 = icmp slt i32 %39, %43
  br i1 %44, label %45, label %54

45:                                               ; preds = %37
  %46 = getelementptr inbounds nuw %struct.ForEachState, ptr %8, i32 0, i32 0
  %47 = load ptr, ptr %46, align 8
  %48 = getelementptr inbounds nuw %struct.List, ptr %47, i32 0, i32 3
  %49 = load ptr, ptr %48, align 8
  %50 = getelementptr inbounds nuw %struct.ForEachState, ptr %8, i32 0, i32 1
  %51 = load i32, ptr %50, align 8
  %52 = sext i32 %51 to i64
  %53 = getelementptr inbounds %union.ListCell, ptr %49, i64 %52
  store ptr %53, ptr %7, align 8
  br label %55

54:                                               ; preds = %37, %33
  store ptr null, ptr %7, align 8
  br label %55

55:                                               ; preds = %54, %45
  %56 = phi i32 [ 1, %45 ], [ 0, %54 ]
  %57 = icmp ne i32 %56, 0
  br i1 %57, label %59, label %58

58:                                               ; preds = %55
  store i32 2, ptr %9, align 4
  br label %89

59:                                               ; preds = %55
  call void @llvm.lifetime.start.p0(i64 8, ptr %10) #8
  %60 = load ptr, ptr %7, align 8
  %61 = load ptr, ptr %60, align 8
  store ptr %61, ptr %10, align 8
  %62 = load ptr, ptr %10, align 8
  %63 = getelementptr inbounds nuw %struct.MinMaxAggInfo, ptr %62, i32 0, i32 1
  %64 = load i32, ptr %63, align 4
  %65 = load ptr, ptr %5, align 8
  %66 = getelementptr inbounds nuw %struct.Aggref, ptr %65, i32 0, i32 1
  %67 = load i32, ptr %66, align 4
  %68 = icmp eq i32 %64, %67
  br i1 %68, label %69, label %81

69:                                               ; preds = %59
  %70 = load ptr, ptr %10, align 8
  %71 = getelementptr inbounds nuw %struct.MinMaxAggInfo, ptr %70, i32 0, i32 3
  %72 = load ptr, ptr %71, align 8
  %73 = load ptr, ptr %6, align 8
  %74 = getelementptr inbounds nuw %struct.TargetEntry, ptr %73, i32 0, i32 1
  %75 = load ptr, ptr %74, align 8
  %76 = call zeroext i1 @equal(ptr noundef %72, ptr noundef %75)
  br i1 %76, label %77, label %81

77:                                               ; preds = %69
  %78 = load ptr, ptr %10, align 8
  %79 = getelementptr inbounds nuw %struct.MinMaxAggInfo, ptr %78, i32 0, i32 7
  %80 = load ptr, ptr %79, align 8
  store ptr %80, ptr %3, align 8
  store i32 1, ptr %9, align 4
  br label %82

81:                                               ; preds = %69, %59
  store i32 0, ptr %9, align 4
  br label %82

82:                                               ; preds = %81, %77
  call void @llvm.lifetime.end.p0(i64 8, ptr %10) #8
  %83 = load i32, ptr %9, align 4
  switch i32 %83, label %89 [
    i32 0, label %84
  ]

84:                                               ; preds = %82
  br label %85

85:                                               ; preds = %84
  %86 = getelementptr inbounds nuw %struct.ForEachState, ptr %8, i32 0, i32 1
  %87 = load i32, ptr %86, align 8
  %88 = add i32 %87, 1
  store i32 %88, ptr %86, align 8
  br label %33, !llvm.loop !22

89:                                               ; preds = %82, %58
  call void @llvm.lifetime.end.p0(i64 16, ptr %8) #8
  %90 = load i32, ptr %9, align 4
  switch i32 %90, label %92 [
    i32 2, label %91
  ]

91:                                               ; preds = %89
  store i32 0, ptr %9, align 4
  br label %92

92:                                               ; preds = %91, %89
  call void @llvm.lifetime.end.p0(i64 8, ptr %7) #8
  call void @llvm.lifetime.end.p0(i64 8, ptr %6) #8
  %93 = load i32, ptr %9, align 4
  switch i32 %93, label %98 [
    i32 0, label %94
    i32 1, label %96
  ]

94:                                               ; preds = %92
  br label %95

95:                                               ; preds = %94, %15, %2
  store ptr null, ptr %3, align 8
  br label %96

96:                                               ; preds = %95, %92
  %97 = load ptr, ptr %3, align 8
  ret ptr %97

98:                                               ; preds = %92
  unreachable
}