; Function Attrs: nounwind uwtable
define dso_local ptr @find_minmax_agg_replacement_param(ptr noundef readonly captures(none) %0, ptr noundef readonly captures(none) %1) local_unnamed_addr #0 {
  %3 = getelementptr inbounds nuw i8, ptr %0, i64 552
  %4 = load ptr, ptr %3, align 8
  %.not = icmp eq ptr %4, null
  br i1 %.not, label %list_length.exit.thread, label %5

5:                                                ; preds = %2
  %6 = getelementptr inbounds nuw i8, ptr %1, i64 40
  %7 = load ptr, ptr %6, align 8
  %.not.i = icmp eq ptr %7, null
  br i1 %.not.i, label %list_length.exit.thread, label %list_length.exit

list_length.exit:                                 ; preds = %5
  %8 = getelementptr inbounds nuw i8, ptr %7, i64 4
  %9 = load i32, ptr %8, align 4
  %10 = icmp eq i32 %9, 1
  br i1 %10, label %11, label %list_length.exit.thread

11:                                               ; preds = %list_length.exit
  %12 = getelementptr inbounds nuw i8, ptr %4, i64 4
  %13 = load i32, ptr %12, align 4
  %14 = icmp sgt i32 %13, 0
  br i1 %14, label %.lr.ph, label %list_length.exit.thread

.lr.ph:                                           ; preds = %11
  %15 = getelementptr i8, ptr %7, i64 16
  %.val = load ptr, ptr %15, align 8
  %16 = load ptr, ptr %.val, align 8
  %17 = getelementptr inbounds nuw i8, ptr %4, i64 16
  %18 = getelementptr inbounds nuw i8, ptr %1, i64 4
  %19 = getelementptr inbounds nuw i8, ptr %16, i64 8
  br label %20

20:                                               ; preds = %.lr.ph, %34
  %21 = phi i32 [ %13, %.lr.ph ], [ %35, %34 ]
  %indvars.iv = phi i64 [ 0, %.lr.ph ], [ %indvars.iv.next, %34 ]
  %22 = load ptr, ptr %17, align 8
  %23 = getelementptr inbounds nuw %union.ListCell, ptr %22, i64 %indvars.iv
  %24 = load ptr, ptr %23, align 8
  %25 = getelementptr inbounds nuw i8, ptr %24, i64 4
  %26 = load i32, ptr %25, align 4
  %27 = load i32, ptr %18, align 4
  %28 = icmp eq i32 %26, %27
  br i1 %28, label %29, label %34

29:                                               ; preds = %20
  %30 = getelementptr inbounds nuw i8, ptr %24, i64 16
  %31 = load ptr, ptr %30, align 8
  %32 = load ptr, ptr %19, align 8
  %33 = tail call zeroext i1 @equal(ptr noundef %31, ptr noundef %32) #8
  br i1 %33, label %38, label %._crit_edge

._crit_edge:                                      ; preds = %29
  %.pre = load i32, ptr %12, align 4
  br label %34

34:                                               ; preds = %._crit_edge, %20
  %35 = phi i32 [ %.pre, %._crit_edge ], [ %21, %20 ]
  %indvars.iv.next = add nuw nsw i64 %indvars.iv, 1
  %36 = sext i32 %35 to i64
  %37 = icmp slt i64 %indvars.iv.next, %36
  br i1 %37, label %20, label %list_length.exit.thread, !llvm.loop !11

38:                                               ; preds = %29
  %39 = getelementptr inbounds nuw i8, ptr %24, i64 48
  %40 = load ptr, ptr %39, align 8
  br label %list_length.exit.thread

list_length.exit.thread:                          ; preds = %34, %11, %5, %2, %list_length.exit, %38
  %.3 = phi ptr [ %40, %38 ], [ null, %list_length.exit ], [ null, %2 ], [ null, %5 ], [ null, %11 ], [ null, %34 ]
  ret ptr %.3
}